target datalayout = "e-m:e-p270:32:32-p271:32:32-p272:64:64-i64:64-i128:128-f80:128-n8:16:32:64-S128"
target triple = "x86_64-pc-linux-gnu"

%struct.AVChannelLayout = type { i32, i32, %union.anon.1, ptr }
%union.anon.1 = type { i64 }
%struct.AVRational = type { i32, i32 }
%struct.AVFrame = type { [8 x ptr], [8 x i32], ptr, i32, i32, i32, i32, i32, %struct.AVRational, i64, i64, %struct.AVRational, i32, ptr, i32, i32, [8 x ptr], ptr, i32, ptr, i32, i32, i32, i32, i32, i32, i32, i64, ptr, i32, ptr, ptr, i64, i64, i64, i64, ptr, %struct.AVChannelLayout, i64 }
%union.ColorFloat = type { %struct.RGBFloat }
%struct.RGBFloat = type { float, float, float }

; Function Attrs: nounwind uwtable
define internal void @draw_axis_rgb(ptr noundef %0, ptr noundef %1, ptr noundef %2, i32 noundef %3) #1 {
  %5 = alloca ptr, align 8
  %6 = alloca ptr, align 8
  %7 = alloca ptr, align 8
  %8 = alloca i32, align 4
  %9 = alloca i32, align 4
  %10 = alloca i32, align 4
  %11 = alloca i32, align 4
  %12 = alloca i32, align 4
  %13 = alloca float, align 4
  %14 = alloca float, align 4
  %15 = alloca ptr, align 8
  %16 = alloca ptr, align 8
  store ptr %0, ptr %5, align 8, !tbaa !59
  store ptr %1, ptr %6, align 8, !tbaa !59
  store ptr %2, ptr %7, align 8, !tbaa !159
  store i32 %3, ptr %8, align 4, !tbaa !50
  call void @llvm.lifetime.start.p0(i64 4, ptr %9) #12
  call void @llvm.lifetime.start.p0(i64 4, ptr %10) #12
  call void @llvm.lifetime.start.p0(i64 4, ptr %11) #12
  %17 = load ptr, ptr %6, align 8, !tbaa !59
  %18 = getelementptr inbounds nuw %struct.AVFrame, ptr %17, i32 0, i32 3
  %19 = load i32, ptr %18, align 8, !tbaa !160
  store i32 %19, ptr %11, align 4, !tbaa !50
  call void @llvm.lifetime.start.p0(i64 4, ptr %12) #12
  %20 = load ptr, ptr %6, align 8, !tbaa !59
  %21 = getelementptr inbounds nuw %struct.AVFrame, ptr %20, i32 0, i32 4
  %22 = load i32, ptr %21, align 4, !tbaa !154
  store i32 %22, ptr %12, align 4, !tbaa !50
  call void @llvm.lifetime.start.p0(i64 4, ptr %13) #12
  call void @llvm.lifetime.start.p0(i64 4, ptr %14) #12
  store float 0x3F70101020000000, ptr %14, align 4, !tbaa !70
  call void @llvm.lifetime.start.p0(i64 8, ptr %15) #12
  call void @llvm.lifetime.start.p0(i64 8, ptr %16) #12
  store i32 0, ptr %10, align 4, !tbaa !50
  br label %23

23:                                               ; preds = %192, %4
  %24 = load i32, ptr %10, align 4, !tbaa !50
  %25 = load i32, ptr %12, align 4, !tbaa !50
  %26 = icmp slt i32 %24, %25
  br i1 %26, label %27, label %195

27:                                               ; preds = %23
  %28 = load ptr, ptr %5, align 8, !tbaa !59
  %29 = getelementptr inbounds nuw %struct.AVFrame, ptr %28, i32 0, i32 0
  %30 = getelementptr inbounds [8 x ptr], ptr %29, i64 0, i64 0
  %31 = load ptr, ptr %30, align 8, !tbaa !123
  %32 = load i32, ptr %8, align 4, !tbaa !50
  %33 = load i32, ptr %10, align 4, !tbaa !50
  %34 = add nsw i32 %32, %33
  %35 = load ptr, ptr %5, align 8, !tbaa !59
  %36 = getelementptr inbounds nuw %struct.AVFrame, ptr %35, i32 0, i32 1
  %37 = getelementptr inbounds [8 x i32], ptr %36, i64 0, i64 0
  %38 = load i32, ptr %37, align 8, !tbaa !50
  %39 = mul nsw i32 %34, %38
  %40 = sext i32 %39 to i64
  %41 = getelementptr inbounds i8, ptr %31, i64 %40
  store ptr %41, ptr %15, align 8, !tbaa !123
  %42 = load ptr, ptr %6, align 8, !tbaa !59
  %43 = getelementptr inbounds nuw %struct.AVFrame, ptr %42, i32 0, i32 0
  %44 = getelementptr inbounds [8 x ptr], ptr %43, i64 0, i64 0
  %45 = load ptr, ptr %44, align 8, !tbaa !123
  %46 = load i32, ptr %10, align 4, !tbaa !50
  %47 = load ptr, ptr %6, align 8, !tbaa !59
  %48 = getelementptr inbounds nuw %struct.AVFrame, ptr %47, i32 0, i32 1
  %49 = getelementptr inbounds [8 x i32], ptr %48, i64 0, i64 0
  %50 = load i32, ptr %49, align 8, !tbaa !50
  %51 = mul nsw i32 %46, %50
  %52 = sext i32 %51 to i64
  %53 = getelementptr inbounds i8, ptr %45, i64 %52
  store ptr %53, ptr %16, align 8, !tbaa !123
  store i32 0, ptr %9, align 4, !tbaa !50
  br label %54

54:                                               ; preds = %188, %27
  %55 = load i32, ptr %9, align 4, !tbaa !50
  %56 = load i32, ptr %11, align 4, !tbaa !50
  %57 = icmp slt i32 %55, %56
  br i1 %57, label %58, label %191

58:                                               ; preds = %54
  %59 = load ptr, ptr %16, align 8, !tbaa !123
  %60 = getelementptr inbounds i8, ptr %59, i64 3
  %61 = load i8, ptr %60, align 1, !tbaa !161
  %62 = icmp ne i8 %61, 0
  br i1 %62, label %94, label %63

63:                                               ; preds = %58
  %64 = load ptr, ptr %7, align 8, !tbaa !159
  %65 = load i32, ptr %9, align 4, !tbaa !50
  %66 = sext i32 %65 to i64
  %67 = getelementptr inbounds %union.ColorFloat, ptr %64, i64 %66
  %68 = getelementptr inbounds nuw %struct.RGBFloat, ptr %67, i32 0, i32 0
  %69 = load float, ptr %68, align 4, !tbaa !161
  %70 = call i64 @llvm.lrint.i64.f32(float %69)
  %71 = trunc i64 %70 to i8
  %72 = load ptr, ptr %15, align 8, !tbaa !123
  %73 = getelementptr inbounds nuw i8, ptr %72, i32 1
  store ptr %73, ptr %15, align 8, !tbaa !123
  store i8 %71, ptr %72, align 1, !tbaa !161
  %74 = load ptr, ptr %7, align 8, !tbaa !159
  %75 = load i32, ptr %9, align 4, !tbaa !50
  %76 = sext i32 %75 to i64
  %77 = getelementptr inbounds %union.ColorFloat, ptr %74, i64 %76
  %78 = getelementptr inbounds nuw %struct.RGBFloat, ptr %77, i32 0, i32 1
  %79 = load float, ptr %78, align 4, !tbaa !161
  %80 = call i64 @llvm.lrint.i64.f32(float %79)
  %81 = trunc i64 %80 to i8
  %82 = load ptr, ptr %15, align 8, !tbaa !123
  %83 = getelementptr inbounds nuw i8, ptr %82, i32 1
  store ptr %83, ptr %15, align 8, !tbaa !123
  store i8 %81, ptr %82, align 1, !tbaa !161
  %84 = load ptr, ptr %7, align 8, !tbaa !159
  %85 = load i32, ptr %9, align 4, !tbaa !50
  %86 = sext i32 %85 to i64
  %87 = getelementptr inbounds %union.ColorFloat, ptr %84, i64 %86
  %88 = getelementptr inbounds nuw %struct.RGBFloat, ptr %87, i32 0, i32 2
  %89 = load float, ptr %88, align 4, !tbaa !161
  %90 = call i64 @llvm.lrint.i64.f32(float %89)
  %91 = trunc i64 %90 to i8
  %92 = load ptr, ptr %15, align 8, !tbaa !123
  %93 = getelementptr inbounds nuw i8, ptr %92, i32 1
  store ptr %93, ptr %15, align 8, !tbaa !123
  store i8 %91, ptr %92, align 1, !tbaa !161
  br label %185

94:                                               ; preds = %58
  %95 = load ptr, ptr %16, align 8, !tbaa !123
  %96 = getelementptr inbounds i8, ptr %95, i64 3
  %97 = load i8, ptr %96, align 1, !tbaa !161
  %98 = zext i8 %97 to i32
  %99 = icmp eq i32 %98, 255
  br i1 %99, label %100, label %116

100:                                              ; preds = %94
  %101 = load ptr, ptr %16, align 8, !tbaa !123
  %102 = getelementptr inbounds i8, ptr %101, i64 0
  %103 = load i8, ptr %102, align 1, !tbaa !161
  %104 = load ptr, ptr %15, align 8, !tbaa !123
  %105 = getelementptr inbounds nuw i8, ptr %104, i32 1
  store ptr %105, ptr %15, align 8, !tbaa !123
  store i8 %103, ptr %104, align 1, !tbaa !161
  %106 = load ptr, ptr %16, align 8, !tbaa !123
  %107 = getelementptr inbounds i8, ptr %106, i64 1
  %108 = load i8, ptr %107, align 1, !tbaa !161
  %109 = load ptr, ptr %15, align 8, !tbaa !123
  %110 = getelementptr inbounds nuw i8, ptr %109, i32 1
  store ptr %110, ptr %15, align 8, !tbaa !123
  store i8 %108, ptr %109, align 1, !tbaa !161
  %111 = load ptr, ptr %16, align 8, !tbaa !123
  %112 = getelementptr inbounds i8, ptr %111, i64 2
  %113 = load i8, ptr %112, align 1, !tbaa !161
  %114 = load ptr, ptr %15, align 8, !tbaa !123
  %115 = getelementptr inbounds nuw i8, ptr %114, i32 1
  store ptr %115, ptr %15, align 8, !tbaa !123
  store i8 %113, ptr %114, align 1, !tbaa !161
  br label %184

116:                                              ; preds = %94
  %117 = load float, ptr %14, align 4, !tbaa !70
  %118 = load ptr, ptr %16, align 8, !tbaa !123
  %119 = getelementptr inbounds i8, ptr %118, i64 3
  %120 = load i8, ptr %119, align 1, !tbaa !161
  %121 = zext i8 %120 to i32
  %122 = sitofp i32 %121 to float
  %123 = fmul nsz float %117, %122
  store float %123, ptr %13, align 4, !tbaa !70
  %124 = load float, ptr %13, align 4, !tbaa !70
  %125 = load ptr, ptr %16, align 8, !tbaa !123
  %126 = getelementptr inbounds i8, ptr %125, i64 0
  %127 = load i8, ptr %126, align 1, !tbaa !161
  %128 = zext i8 %127 to i32
  %129 = sitofp i32 %128 to float
  %130 = load float, ptr %13, align 4, !tbaa !70
  %131 = fsub nsz float 1.000000e+00, %130
  %132 = load ptr, ptr %7, align 8, !tbaa !159
  %133 = load i32, ptr %9, align 4, !tbaa !50
  %134 = sext i32 %133 to i64
  %135 = getelementptr inbounds %union.ColorFloat, ptr %132, i64 %134
  %136 = getelementptr inbounds nuw %struct.RGBFloat, ptr %135, i32 0, i32 0
  %137 = load float, ptr %136, align 4, !tbaa !161
  %138 = fmul nsz float %131, %137
  %139 = call nsz float @llvm.fmuladd.f32(float %124, float %129, float %138)
  %140 = call i64 @llvm.lrint.i64.f32(float %139)
  %141 = trunc i64 %140 to i8
  %142 = load ptr, ptr %15, align 8, !tbaa !123
  %143 = getelementptr inbounds nuw i8, ptr %142, i32 1
  store ptr %143, ptr %15, align 8, !tbaa !123
  store i8 %141, ptr %142, align 1, !tbaa !161
  %144 = load float, ptr %13, align 4, !tbaa !70
  %145 = load ptr, ptr %16, align 8, !tbaa !123
  %146 = getelementptr inbounds i8, ptr %145, i64 1
  %147 = load i8, ptr %146, align 1, !tbaa !161
  %148 = zext i8 %147 to i32
  %149 = sitofp i32 %148 to float
  %150 = load float, ptr %13, align 4, !tbaa !70
  %151 = fsub nsz float 1.000000e+00, %150
  %152 = load ptr, ptr %7, align 8, !tbaa !159
  %153 = load i32, ptr %9, align 4, !tbaa !50
  %154 = sext i32 %153 to i64
  %155 = getelementptr inbounds %union.ColorFloat, ptr %152, i64 %154
  %156 = getelementptr inbounds nuw %struct.RGBFloat, ptr %155, i32 0, i32 1
  %157 = load float, ptr %156, align 4, !tbaa !161
  %158 = fmul nsz float %151, %157
  %159 = call nsz float @llvm.fmuladd.f32(float %144, float %149, float %158)
  %160 = call i64 @llvm.lrint.i64.f32(float %159)
  %161 = trunc i64 %160 to i8
  %162 = load ptr, ptr %15, align 8, !tbaa !123
  %163 = getelementptr inbounds nuw i8, ptr %162, i32 1
  store ptr %163, ptr %15, align 8, !tbaa !123
  store i8 %161, ptr %162, align 1, !tbaa !161
  %164 = load float, ptr %13, align 4, !tbaa !70
  %165 = load ptr, ptr %16, align 8, !tbaa !123
  %166 = getelementptr inbounds i8, ptr %165, i64 2
  %167 = load i8, ptr %166, align 1, !tbaa !161
  %168 = zext i8 %167 to i32
  %169 = sitofp i32 %168 to float
  %170 = load float, ptr %13, align 4, !tbaa !70
  %171 = fsub nsz float 1.000000e+00, %170
  %172 = load ptr, ptr %7, align 8, !tbaa !159
  %173 = load i32, ptr %9, align 4, !tbaa !50
  %174 = sext i32 %173 to i64
  %175 = getelementptr inbounds %union.ColorFloat, ptr %172, i64 %174
  %176 = getelementptr inbounds nuw %struct.RGBFloat, ptr %175, i32 0, i32 2
  %177 = load float, ptr %176, align 4, !tbaa !161
  %178 = fmul nsz float %171, %177
  %179 = call nsz float @llvm.fmuladd.f32(float %164, float %169, float %178)
  %180 = call i64 @llvm.lrint.i64.f32(float %179)
  %181 = trunc i64 %180 to i8
  %182 = load ptr, ptr %15, align 8, !tbaa !123
  %183 = getelementptr inbounds nuw i8, ptr %182, i32 1
  store ptr %183, ptr %15, align 8, !tbaa !123
  store i8 %181, ptr %182, align 1, !tbaa !161
  br label %184

184:                                              ; preds = %116, %100
  br label %185

185:                                              ; preds = %184, %63
  %186 = load ptr, ptr %16, align 8, !tbaa !123
  %187 = getelementptr inbounds i8, ptr %186, i64 4
  store ptr %187, ptr %16, align 8, !tbaa !123
  br label %188

188:                                              ; preds = %185
  %189 = load i32, ptr %9, align 4, !tbaa !50
  %190 = add nsw i32 %189, 1
  store i32 %190, ptr %9, align 4, !tbaa !50
  br label %54, !llvm.loop !164

191:                                              ; preds = %54
  br label %192

192:                                              ; preds = %191
  %193 = load i32, ptr %10, align 4, !tbaa !50
  %194 = add nsw i32 %193, 1
  store i32 %194, ptr %10, align 4, !tbaa !50
  br label %23, !llvm.loop !165

195:                                              ; preds = %23
  call void @llvm.lifetime.end.p0(i64 8, ptr %16) #12
  call void @llvm.lifetime.end.p0(i64 8, ptr %15) #12
  call void @llvm.lifetime.end.p0(i64 4, ptr %14) #12
  call void @llvm.lifetime.end.p0(i64 4, ptr %13) #12
  call void @llvm.lifetime.end.p0(i64 4, ptr %12) #12
  call void @llvm.lifetime.end.p0(i64 4, ptr %11) #12
  call void @llvm.lifetime.end.p0(i64 4, ptr %10) #12
  call void @llvm.lifetime.end.p0(i64 4, ptr %9) #12
  ret void
}