; Function Attrs: nofree norecurse nosync nounwind memory(readwrite, inaccessiblemem: none) uwtable
define internal void @draw_axis_rgb(ptr noundef readonly captures(none) %0, ptr noundef readonly captures(none) %1, ptr noundef readonly captures(none) %2, i32 noundef %3) #7 {
  %5 = getelementptr inbounds nuw i8, ptr %1, i64 104
  %6 = load i32, ptr %5, align 8, !tbaa !147
  %7 = getelementptr inbounds nuw i8, ptr %1, i64 108
  %8 = load i32, ptr %7, align 4, !tbaa !142
  %9 = icmp sgt i32 %8, 0
  br i1 %9, label %.lr.ph62, label %._crit_edge63

.lr.ph62:                                         ; preds = %4
  %10 = getelementptr inbounds nuw i8, ptr %0, i64 64
  %11 = getelementptr inbounds nuw i8, ptr %1, i64 64
  %12 = icmp sgt i32 %6, 0
  br i1 %12, label %.lr.ph.us.preheader, label %._crit_edge63

.lr.ph.us.preheader:                              ; preds = %.lr.ph62
  %wide.trip.count = zext nneg i32 %6 to i64
  br label %.lr.ph.us

.lr.ph.us:                                        ; preds = %.lr.ph.us.preheader, %._crit_edge.us
  %.05460.us = phi i32 [ %84, %._crit_edge.us ], [ 0, %.lr.ph.us.preheader ]
  %13 = load ptr, ptr %0, align 8, !tbaa !130
  %14 = add nsw i32 %.05460.us, %3
  %15 = load i32, ptr %10, align 8, !tbaa !143
  %16 = mul nsw i32 %15, %14
  %17 = sext i32 %16 to i64
  %18 = getelementptr inbounds i8, ptr %13, i64 %17
  %19 = load ptr, ptr %1, align 8, !tbaa !130
  %20 = load i32, ptr %11, align 8, !tbaa !143
  %21 = mul nsw i32 %20, %.05460.us
  %22 = sext i32 %21 to i64
  %23 = getelementptr inbounds i8, ptr %19, i64 %22
  br label %24

24:                                               ; preds = %.lr.ph.us, %82
  %indvars.iv = phi i64 [ 0, %.lr.ph.us ], [ %indvars.iv.next, %82 ]
  %.059.us = phi ptr [ %23, %.lr.ph.us ], [ %83, %82 ]
  %.05258.us = phi ptr [ %18, %.lr.ph.us ], [ %.1.us, %82 ]
  %25 = getelementptr inbounds nuw i8, ptr %.059.us, i64 3
  %26 = load i8, ptr %25, align 1, !tbaa !148
  switch i8 %26, label %50 [
    i8 0, label %35
    i8 -1, label %27
  ]

27:                                               ; preds = %24
  %28 = load i8, ptr %.059.us, align 1, !tbaa !148
  %29 = getelementptr inbounds nuw i8, ptr %.05258.us, i64 1
  store i8 %28, ptr %.05258.us, align 1, !tbaa !148
  %30 = getelementptr inbounds nuw i8, ptr %.059.us, i64 1
  %31 = load i8, ptr %30, align 1, !tbaa !148
  %32 = getelementptr inbounds nuw i8, ptr %.05258.us, i64 2
  store i8 %31, ptr %29, align 1, !tbaa !148
  %33 = getelementptr inbounds nuw i8, ptr %.059.us, i64 2
  %34 = load i8, ptr %33, align 1, !tbaa !148
  store i8 %34, ptr %32, align 1, !tbaa !148
  br label %82

35:                                               ; preds = %24
  %36 = getelementptr inbounds nuw %union.ColorFloat, ptr %2, i64 %indvars.iv
  %37 = load float, ptr %36, align 4, !tbaa !148
  %38 = tail call i64 @llvm.lrint.i64.f32(float %37)
  %39 = trunc i64 %38 to i8
  %40 = getelementptr inbounds nuw i8, ptr %.05258.us, i64 1
  store i8 %39, ptr %.05258.us, align 1, !tbaa !148
  %41 = getelementptr inbounds nuw i8, ptr %36, i64 4
  %42 = load float, ptr %41, align 4, !tbaa !148
  %43 = tail call i64 @llvm.lrint.i64.f32(float %42)
  %44 = trunc i64 %43 to i8
  %45 = getelementptr inbounds nuw i8, ptr %.05258.us, i64 2
  store i8 %44, ptr %40, align 1, !tbaa !148
  %46 = getelementptr inbounds nuw i8, ptr %36, i64 8
  %47 = load float, ptr %46, align 4, !tbaa !148
  %48 = tail call i64 @llvm.lrint.i64.f32(float %47)
  %49 = trunc i64 %48 to i8
  store i8 %49, ptr %45, align 1, !tbaa !148
  br label %82

50:                                               ; preds = %24
  %51 = uitofp i8 %26 to float
  %52 = fmul nsz float %51, 0x3F70101020000000
  %53 = load i8, ptr %.059.us, align 1, !tbaa !148
  %54 = uitofp i8 %53 to float
  %55 = fsub nsz float 1.000000e+00, %52
  %56 = getelementptr inbounds nuw %union.ColorFloat, ptr %2, i64 %indvars.iv
  %57 = load float, ptr %56, align 4, !tbaa !148
  %58 = fmul nsz float %55, %57
  %59 = tail call nsz float @llvm.fmuladd.f32(float %52, float %54, float %58)
  %60 = tail call i64 @llvm.lrint.i64.f32(float %59)
  %61 = trunc i64 %60 to i8
  %62 = getelementptr inbounds nuw i8, ptr %.05258.us, i64 1
  store i8 %61, ptr %.05258.us, align 1, !tbaa !148
  %63 = getelementptr inbounds nuw i8, ptr %.059.us, i64 1
  %64 = load i8, ptr %63, align 1, !tbaa !148
  %65 = uitofp i8 %64 to float
  %66 = getelementptr inbounds nuw i8, ptr %56, i64 4
  %67 = load float, ptr %66, align 4, !tbaa !148
  %68 = fmul nsz float %55, %67
  %69 = tail call nsz float @llvm.fmuladd.f32(float %52, float %65, float %68)
  %70 = tail call i64 @llvm.lrint.i64.f32(float %69)
  %71 = trunc i64 %70 to i8
  %72 = getelementptr inbounds nuw i8, ptr %.05258.us, i64 2
  store i8 %71, ptr %62, align 1, !tbaa !148
  %73 = getelementptr inbounds nuw i8, ptr %.059.us, i64 2
  %74 = load i8, ptr %73, align 1, !tbaa !148
  %75 = uitofp i8 %74 to float
  %76 = getelementptr inbounds nuw i8, ptr %56, i64 8
  %77 = load float, ptr %76, align 4, !tbaa !148
  %78 = fmul nsz float %55, %77
  %79 = tail call nsz float @llvm.fmuladd.f32(float %52, float %75, float %78)
  %80 = tail call i64 @llvm.lrint.i64.f32(float %79)
  %81 = trunc i64 %80 to i8
  store i8 %81, ptr %72, align 1, !tbaa !148
  br label %82

82:                                               ; preds = %50, %35, %27
  %.1.us = getelementptr inbounds nuw i8, ptr %.05258.us, i64 3
  %83 = getelementptr inbounds nuw i8, ptr %.059.us, i64 4
  %indvars.iv.next = add nuw nsw i64 %indvars.iv, 1
  %exitcond.not = icmp eq i64 %indvars.iv.next, %wide.trip.count
  br i1 %exitcond.not, label %._crit_edge.us, label %24, !llvm.loop !151

._crit_edge.us:                                   ; preds = %82
  %84 = add nuw nsw i32 %.05460.us, 1
  %exitcond66.not = icmp eq i32 %84, %8
  br i1 %exitcond66.not, label %._crit_edge63, label %.lr.ph.us, !llvm.loop !152

._crit_edge63:                                    ; preds = %._crit_edge.us, %.lr.ph62, %4
  ret void
}